target datalayout = "e-m:e-p270:32:32-p271:32:32-p272:64:64-i64:64-i128:128-f80:128-n8:16:32:64-S128"
target triple = "x86_64-pc-linux-gnu"

@proto_register_fp_hint.ett = internal global [4 x ptr] [ptr @ett_fph, ptr @ett_fph_rb, ptr @ett_fph_ddi_entry, ptr @ett_fph_tf], align 16
@.str.50 = private unnamed_addr constant [8 x i8] c"FP Hint\00", align 1
@.str.51 = private unnamed_addr constant [8 x i8] c"fp_hint\00", align 1
@proto_fp_hint = internal global i32 0, align 4

; Function Attrs: null_pointer_is_valid sspstrong uwtable
define hidden void @proto_register_fp_hint() #0 {
  %1 = alloca ptr, align 8
  call void @llvm.lifetime.start.p0(i64 8, ptr %1) #7
  %2 = call i32 @proto_register_protocol(ptr noundef @.str.50, ptr noundef @.str.50, ptr noundef @.str.51)
  store i32 %2, ptr @proto_fp_hint, align 4
  %3 = load i32, ptr @proto_fp_hint, align 4
  %4 = call ptr @register_dissector(ptr noundef @.str.51, ptr noundef @dissect_fp_hint, i32 noundef %3)
  %5 = load i32, ptr @proto_fp_hint, align 4
  call void @proto_register_field_array(i32 noundef %5, ptr noundef @proto_register_fp_hint.hf, i32 noundef 21)
  call void @proto_register_subtree_array(ptr noundef @proto_register_fp_hint.ett, i32 noundef 4)
  %6 = load i32, ptr @proto_fp_hint, align 4
  %7 = call ptr @expert_register_protocol(i32 noundef %6)
  store ptr %7, ptr %1, align 8
  %8 = load ptr, ptr %1, align 8
  call void @expert_register_field_array(ptr noundef %8, ptr noundef @proto_register_fp_hint.ei, i32 noundef 3)
  call void @llvm.lifetime.end.p0(i64 8, ptr %1) #7
  ret void
}