; Function Attrs: null_pointer_is_valid sspstrong uwtable
define hidden void @proto_register_fp_hint() local_unnamed_addr #0 {
  %1 = tail call i32 @proto_register_protocol(ptr noundef nonnull @.str.50, ptr noundef nonnull @.str.50, ptr noundef nonnull @.str.51)
  store i32 %1, ptr @proto_fp_hint, align 4
  %2 = tail call ptr @register_dissector(ptr noundef nonnull @.str.51, ptr noundef nonnull @dissect_fp_hint, i32 noundef %1)
  %3 = load i32, ptr @proto_fp_hint, align 4
  tail call void @proto_register_field_array(i32 noundef %3, ptr noundef nonnull @proto_register_fp_hint.hf, i32 noundef 21)
  tail call void @proto_register_subtree_array(ptr noundef nonnull @proto_register_fp_hint.ett, i32 noundef 4)
  %4 = load i32, ptr @proto_fp_hint, align 4
  %5 = tail call ptr @expert_register_protocol(i32 noundef %4)
  tail call void @expert_register_field_array(ptr noundef %5, ptr noundef nonnull @proto_register_fp_hint.ei, i32 noundef 3)
  ret void
}